target datalayout = "e-m:e-p270:32:32-p271:32:32-p272:64:64-i64:64-i128:128-f80:128-n8:16:32:64-S128"
target triple = "x86_64-pc-linux-gnu"

%struct.GuidPropertySet = type { %struct._e_guid_t, ptr, ptr, ptr }
%struct._e_guid_t = type { i32, i16, i16, [8 x i8] }

@.str.438 = private unnamed_addr constant [24 x i8] c"Windows Search Protocol\00", align 1
@.str.439 = private unnamed_addr constant [7 x i8] c"MS-WSP\00", align 1
@.str.440 = private unnamed_addr constant [6 x i8] c"mswsp\00", align 1
@proto_mswsp = internal global i32 0, align 4

; Function Attrs: null_pointer_is_valid sspstrong uwtable
define hidden void @proto_register_mswsp() #0 {
  %1 = alloca ptr, align 8
  %2 = alloca i32, align 4
  call void @llvm.lifetime.start.p0(i64 8, ptr %1) #11
  store ptr null, ptr %1, align 8
  call void @llvm.lifetime.start.p0(i64 4, ptr %2) #11
  %3 = call i32 @proto_register_protocol(ptr noundef @.str.438, ptr noundef @.str.439, ptr noundef @.str.440)
  store i32 %3, ptr @proto_mswsp, align 4
  %4 = load i32, ptr @proto_mswsp, align 4
  call void @proto_register_field_array(i32 noundef %4, ptr noundef @proto_register_mswsp.hf, i32 noundef 222)
  call void @proto_register_subtree_array(ptr noundef @proto_register_mswsp.ett, i32 noundef 53)
  %5 = load i32, ptr @proto_mswsp, align 4
  %6 = call ptr @expert_register_protocol(i32 noundef %5)
  store ptr %6, ptr %1, align 8
  %7 = load ptr, ptr %1, align 8
  call void @expert_register_field_array(ptr noundef %7, ptr noundef @proto_register_mswsp.ei, i32 noundef 3)
  store i32 0, ptr %2, align 4
  br label %8

8:                                                ; preds = %21, %0
  %9 = load i32, ptr %2, align 4
  %10 = icmp slt i32 %9, 204
  br i1 %10, label %11, label %24

11:                                               ; preds = %8
  %12 = load i32, ptr %2, align 4
  %13 = sext i32 %12 to i64
  %14 = getelementptr [204 x %struct.GuidPropertySet], ptr @GuidPropertySet, i64 0, i64 %13
  %15 = getelementptr inbounds nuw %struct.GuidPropertySet, ptr %14, i32 0, i32 0
  %16 = load i32, ptr %2, align 4
  %17 = sext i32 %16 to i64
  %18 = getelementptr [204 x %struct.GuidPropertySet], ptr @GuidPropertySet, i64 0, i64 %17
  %19 = getelementptr inbounds nuw %struct.GuidPropertySet, ptr %18, i32 0, i32 1
  %20 = load ptr, ptr %19, align 8
  call void @guids_add_guid(ptr noundef %15, ptr noundef %20)
  br label %21

21:                                               ; preds = %11
  %22 = load i32, ptr %2, align 4
  %23 = add i32 %22, 1
  store i32 %23, ptr %2, align 4
  br label %8, !llvm.loop !6

24:                                               ; preds = %8
  call void @llvm.lifetime.end.p0(i64 4, ptr %2) #11
  call void @llvm.lifetime.end.p0(i64 8, ptr %1) #11
  ret void
}