; Function Attrs: null_pointer_is_valid sspstrong uwtable
define hidden void @proto_register_mswsp() local_unnamed_addr #0 {
  %1 = tail call i32 @proto_register_protocol(ptr noundef nonnull @.str.438, ptr noundef nonnull @.str.439, ptr noundef nonnull @.str.440)
  store i32 %1, ptr @proto_mswsp, align 4
  tail call void @proto_register_field_array(i32 noundef %1, ptr noundef nonnull @proto_register_mswsp.hf, i32 noundef 222)
  tail call void @proto_register_subtree_array(ptr noundef nonnull @proto_register_mswsp.ett, i32 noundef 53)
  %2 = load i32, ptr @proto_mswsp, align 4
  %3 = tail call ptr @expert_register_protocol(i32 noundef %2)
  tail call void @expert_register_field_array(ptr noundef %3, ptr noundef nonnull @proto_register_mswsp.ei, i32 noundef 3)
  br label %4

4:                                                ; preds = %0, %4
  %indvars.iv = phi i64 [ 0, %0 ], [ %indvars.iv.next, %4 ]
  %5 = getelementptr [204 x %struct.GuidPropertySet], ptr @GuidPropertySet, i64 0, i64 %indvars.iv
  %6 = getelementptr inbounds nuw i8, ptr %5, i64 16
  %7 = load ptr, ptr %6, align 8
  tail call void @guids_add_guid(ptr noundef %5, ptr noundef %7)
  %indvars.iv.next = add nuw nsw i64 %indvars.iv, 1
  %exitcond.not = icmp eq i64 %indvars.iv.next, 204
  br i1 %exitcond.not, label %8, label %4, !llvm.loop !6

8:                                                ; preds = %4
  ret void
}